******************************************************************************
                  TI ARM Linker PC v15.12.5                    
******************************************************************************
>> Linked Tue Jul 18 17:39:49 2017

OUTPUT FILE NAME:   <8V97003 Synth API.out>
ENTRY POINT SYMBOL: "_c_int00"  address: 000016e9


MEMORY CONFIGURATION

         name            origin    length      used     unused   attr    fill
----------------------  --------  ---------  --------  --------  ----  --------
  FLASH                 00000000   00040000  00001c08  0003e3f8  R  X
  SRAM                  20000000   00008000  0000021f  00007de1  RW X


SEGMENT ALLOCATION MAP

run origin  load origin   length   init length attrs members
----------  ----------- ---------- ----------- ----- -------
00000000    00000000    00001c0c   00001c0c    r-x
  00000000    00000000    0000026c   0000026c    r-- .intvecs
  0000026c    0000026c    0000185c   0000185c    r-x .text
  00001ac8    00001ac8    000000fc   000000fc    r-- .const
  00001bc8    00001bc8    00000044   00000044    r-- .cinit
20000000    20000000    00000220   00000000    rw-
  20000000    20000000    00000200   00000000    rw- .stack
  20000200    20000200    0000001b   00000000    rw- .data
  2000021c    2000021c    00000004   00000000    rw- .bss


SECTION ALLOCATION MAP

 output                                  attributes/
section   page    origin      length       input sections
--------  ----  ----------  ----------   ----------------
.intvecs   0    00000000    0000026c     
                  00000000    0000026c     tm4c123gh6pm_startup_ccs.obj (.intvecs)

.text      0    0000026c    0000185c     
                  0000026c    00000e54     main.obj (.text)
                  000010c0    00000132     driverlib.lib : gpio.obj (.text:GPIOPadConfigSet)
                  000011f2    00000002     rtsv7M4_T_le_v4SPD16_eabi.lib : mpu_init.obj (.text)
                  000011f4    00000110     driverlib.lib : sysctl.obj (.text:SysCtlClockGet)
                  00001304    000000fc     rtsv7M4_T_le_v4SPD16_eabi.lib : fd_mul_t2.obj (.text)
                  00001400    000000f4     driverlib.lib : sysctl.obj (.text:SysCtlClockSet)
                  000014f4    0000009c     rtsv7M4_T_le_v4SPD16_eabi.lib : memcpy_t2.obj (.text)
                  00001590    0000007a                                   : memset_t2.obj (.text)
                  0000160a    00000002                                   : startup.obj (.text)
                  0000160c    00000070                                   : autoinit.obj (.text)
                  0000167c    0000006a                                   : copy_decompress_rle.obj (.text)
                  000016e6    00000002     --HOLE-- [fill = 0]
                  000016e8    00000054                                   : boot.obj (.text)
                  0000173c    00000054                                   : exit.obj (.text)
                  00001790    0000004c                                   : cpy_tbl.obj (.text)
                  000017dc    00000048     driverlib.lib : gpio.obj (.text:GPIOPinConfigure)
                  00001824    00000048     rtsv7M4_T_le_v4SPD16_eabi.lib : fd_toi_t2.obj (.text)
                  0000186c    00000046     driverlib.lib : uart.obj (.text:UARTConfigSetExpClk)
                  000018b2    0000003c                   : ssi.obj (.text:SSIConfigSetExpClk)
                  000018ee    00000002     --HOLE-- [fill = 0]
                  000018f0    00000034                   : sysctl.obj (.text:SysCtlPeripheralEnable)
                  00001924    0000002e     rtsv7M4_T_le_v4SPD16_eabi.lib : i_tofd_t2.obj (.text)
                  00001952    0000002a     driverlib.lib : gpio.obj (.text:GPIODirModeSet)
                  0000197c    00000026     rtsv7M4_T_le_v4SPD16_eabi.lib : strncmp.obj (.text)
                  000019a2    00000002     --HOLE-- [fill = 0]
                  000019a4    00000020     driverlib.lib : uart.obj (.text:UARTDisable)
                  000019c4    00000018                   : gpio.obj (.text:GPIOPinTypeGPIOOutput)
                  000019dc    00000018     rtsv7M4_T_le_v4SPD16_eabi.lib : args_main.obj (.text)
                  000019f4    00000014     driverlib.lib : uart.obj (.text:UARTEnable)
                  00001a08    00000014     rtsv7M4_T_le_v4SPD16_eabi.lib : _lock.obj (.text)
                  00001a1c    00000012     driverlib.lib : gpio.obj (.text:GPIOPinTypeSSI)
                  00001a2e    00000012                   : gpio.obj (.text:GPIOPinTypeUART)
                  00001a40    00000012                   : ssi.obj (.text:SSIDataGetNonBlocking)
                  00001a52    0000000e     rtsv7M4_T_le_v4SPD16_eabi.lib : copy_decompress_none.obj (.text:decompress:none)
                  00001a60    0000000c     driverlib.lib : ssi.obj (.text:SSIDataGet)
                  00001a6c    0000000c     tm4c123gh6pm_startup_ccs.obj (.text)
                  00001a78    0000000a     driverlib.lib : ssi.obj (.text:SSIDataPut)
                  00001a82    0000000a                   : ssi.obj (.text:SSIDisable)
                  00001a8c    0000000a                   : ssi.obj (.text:SSIEnable)
                  00001a96    0000000a                   : uart.obj (.text:UARTCharGet)
                  00001aa0    0000000a                   : uart.obj (.text:UARTCharPut)
                  00001aaa    00000008                   : ssi.obj (.text:SSIBusy)
                  00001ab2    00000006                   : gpio.obj (.text:GPIOPinWrite)
                  00001ab8    00000006                   : sysctl.obj (.text:SysCtlDelay)
                  00001abe    00000006     rtsv7M4_T_le_v4SPD16_eabi.lib : copy_decompress_rle.obj (.text:decompress:rle24)
                  00001ac4    00000004                                   : pre_init.obj (.text)

.const     0    00001ac8    000000fc     
                  00001ac8    00000090     driverlib.lib : gpio.obj (.const:g_pui32GPIOBaseAddrs)
                  00001b58    0000006c                   : sysctl.obj (.const:g_pui32Xtals)

.cinit     0    00001bc8    00000044     
                  00001bc8    00000019     (.cinit..data.load) [load image, compression = rle]
                  00001be1    00000007     --HOLE-- [fill = 0]
                  00001be8    00000009     (.cinit..bss.load) [load image, compression = rle]
                  00001bf1    00000003     --HOLE-- [fill = 0]
                  00001bf4    00000008     (__TI_handler_table)
                  00001bfc    00000010     (__TI_cinit_table)

.init_array 
*          0    00000000    00000000     UNINITIALIZED

.stack     0    20000000    00000200     UNINITIALIZED
                  20000000    00000200     --HOLE--

.data      0    20000200    0000001b     UNINITIALIZED
                  20000200    0000000c     rtsv7M4_T_le_v4SPD16_eabi.lib : exit.obj (.data:$O1$$)
                  2000020c    00000008                                   : _lock.obj (.data:$O1$$)
                  20000214    00000004                                   : stkdepth_vars.obj (.data)
                  20000218    00000003     main.obj (.data:newline)

.bss       0    2000021c    00000004     UNINITIALIZED
                  2000021c    00000004     (.common:cs_config)

MODULE SUMMARY

       Module                         code   ro data   rw data
       ------                         ----   -------   -------
    .\
       main.obj                       3668   0         7      
       tm4c123gh6pm_startup_ccs.obj   12     620       0      
    +--+------------------------------+------+---------+---------+
       Total:                         3680   620       7      
                                                              
    C:/ti/TivaWare_C_Series-2.1.4.178/driverlib/ccs/Debug/driverlib.lib
       sysctl.obj                     574    108       0      
       gpio.obj                       486    144       0      
       uart.obj                       142    0         0      
       ssi.obj                        128    0         0      
    +--+------------------------------+------+---------+---------+
       Total:                         1330   252       0      
                                                              
    C:\ti\ccsv6\tools\compiler\ti-cgt-arm_15.12.5.LTS\lib\rtsv7M4_T_le_v4SPD16_eabi.lib
       fd_mul_t2.obj                  252    0         0      
       memcpy_t2.obj                  156    0         0      
       memset_t2.obj                  122    0         0      
       autoinit.obj                   112    0         0      
       copy_decompress_rle.obj        112    0         0      
       exit.obj                       84     0         12     
       boot.obj                       84     0         0      
       cpy_tbl.obj                    76     0         0      
       fd_toi_t2.obj                  72     0         0      
       i_tofd_t2.obj                  46     0         0      
       strncmp.obj                    38     0         0      
       _lock.obj                      20     0         8      
       args_main.obj                  24     0         0      
       copy_decompress_none.obj       14     0         0      
       pre_init.obj                   4      0         0      
       stkdepth_vars.obj              0      0         4      
       mpu_init.obj                   2      0         0      
       startup.obj                    2      0         0      
    +--+------------------------------+------+---------+---------+
       Total:                         1220   0         24     
                                                              
       Stack:                         0      0         512    
       Linker Generated:              0      58        0      
    +--+------------------------------+------+---------+---------+
       Grand Total:                   6230   930       543    


LINKER GENERATED COPY TABLES

__TI_cinit_table @ 00001bfc records: 2, size/record: 8, table size: 16
	.data: load addr=00001bc8, load size=00000019 bytes, run addr=20000200, run size=0000001b bytes, compression=rle
	.bss: load addr=00001be8, load size=00000009 bytes, run addr=2000021c, run size=00000004 bytes, compression=rle


LINKER GENERATED HANDLER TABLE

__TI_handler_table @ 00001bf4 records: 2, size/record: 4, table size: 8
	index: 0, handler: __TI_decompress_rle24
	index: 1, handler: __TI_decompress_none


GLOBAL SYMBOLS: SORTED ALPHABETICALLY BY Name 

address   name                           
-------   ----                           
0000173d  C$$EXIT                        
00000c31  CalibrationControl             
000005e9  ConvertStringToNumber          
000003b3  Create24BitWord                
00001953  GPIODirModeSet                 
000010c1  GPIOPadConfigSet               
000017dd  GPIOPinConfigure               
000019c5  GPIOPinTypeGPIOOutput          
00001a1d  GPIOPinTypeSSI                 
00001a2f  GPIOPinTypeUART                
00001ab3  GPIOPinWrite                   
00000467  GetRegisterValue               
000006d3  InitConsole                    
00000865  InitPrefaceRegister            
00000cc5  ReadFromStatusRegisters        
00001a6d  ResetISR                       
UNDEFED   SHT$$INIT_ARRAY$$Base          
UNDEFED   SHT$$INIT_ARRAY$$Limit         
00001aab  SSIBusy                        
000018b3  SSIConfigSetExpClk             
00001a61  SSIDataGet                     
00001a41  SSIDataGetNonBlocking          
00001a79  SSIDataPut                     
00001a83  SSIDisable                     
00001a8d  SSIEnable                      
0000096d  SetBandSelectClockDivider      
00000cad  SetCalibrationVoltage          
00000877  SetFeedbackControlValues       
00000bcd  SetPhaseAdjustment             
000009ed  SetupChargePump                
00000b69  SetupLockDetect                
00000a5d  SetupOutputControl             
00000317  SplitNumber_16Bit              
00000359  SplitNumber_32Bit              
000011f5  SysCtlClockGet                 
00001401  SysCtlClockSet                 
00001ab9  SysCtlDelay                    
000018f1  SysCtlPeripheralEnable         
00001a97  UARTCharGet                    
00001aa1  UARTCharPut                    
0000186d  UARTConfigSetExpClk            
000019a5  UARTDisable                    
000019f5  UARTEnable                     
20000200  __STACK_END                    
00000200  __STACK_SIZE                   
20000200  __STACK_TOP                    
00001bfc  __TI_CINIT_Base                
00001c0c  __TI_CINIT_Limit               
00001bf4  __TI_Handler_Table_Base        
00001bfc  __TI_Handler_Table_Limit       
0000160d  __TI_auto_init                 
20000200  __TI_cleanup_ptr               
00001a53  __TI_decompress_none           
00001abf  __TI_decompress_rle24          
20000204  __TI_dtors_ptr                 
20000208  __TI_enable_exit_profile_output
ffffffff  __TI_pprof_out_hndl            
ffffffff  __TI_prof_data_size            
ffffffff  __TI_prof_data_start           
00000000  __TI_static_base__             
00001825  __aeabi_d2iz                   
00001305  __aeabi_dmul                   
00001925  __aeabi_i2d                    
00001591  __aeabi_memclr                 
00001591  __aeabi_memclr4                
00001591  __aeabi_memclr8                
000014f5  __aeabi_memcpy                 
000014f5  __aeabi_memcpy4                
000014f5  __aeabi_memcpy8                
00001593  __aeabi_memset                 
00001593  __aeabi_memset4                
00001593  __aeabi_memset8                
ffffffff  __binit__                      
ffffffff  __c_args__                     
000011f3  __mpu_init                     
20000000  __stack                        
000019dd  _args_main                     
000016e9  _c_int00                       
2000020c  _lock                          
00001a17  _nop                           
00001a0f  _register_lock                 
00001a09  _register_unlock               
0000160b  _system_post_cinit             
00001ac5  _system_pre_init               
20000210  _unlock                        
00001741  abort                          
ffffffff  binit                          
00000551  clearArray                     
00001791  copy_in                        
2000021c  cs_config                      
00001749  exit                           
00000000  g_pfnVectors                   
0000058d  getString                      
0000026d  main                           
20000214  main_func_sp                   
000014f5  memcpy                         
00001599  memset                         
20000218  newline                        
00000719  printInt                       
000007b1  printSingleNumber              
000005c1  printString                    
00000491  readWord_24Bit                 
000003c9  sendWord_24Bit                 
00000279  setupChipSelect                
0000026f  setupClock                     
000002b9  setupSPI_8Bit                  
0000197d  strncmp                        


GLOBAL SYMBOLS: SORTED BY Symbol Address 

address   name                           
-------   ----                           
00000000  __TI_static_base__             
00000000  g_pfnVectors                   
00000200  __STACK_SIZE                   
0000026d  main                           
0000026f  setupClock                     
00000279  setupChipSelect                
000002b9  setupSPI_8Bit                  
00000317  SplitNumber_16Bit              
00000359  SplitNumber_32Bit              
000003b3  Create24BitWord                
000003c9  sendWord_24Bit                 
00000467  GetRegisterValue               
00000491  readWord_24Bit                 
00000551  clearArray                     
0000058d  getString                      
000005c1  printString                    
000005e9  ConvertStringToNumber          
000006d3  InitConsole                    
00000719  printInt                       
000007b1  printSingleNumber              
00000865  InitPrefaceRegister            
00000877  SetFeedbackControlValues       
0000096d  SetBandSelectClockDivider      
000009ed  SetupChargePump                
00000a5d  SetupOutputControl             
00000b69  SetupLockDetect                
00000bcd  SetPhaseAdjustment             
00000c31  CalibrationControl             
00000cad  SetCalibrationVoltage          
00000cc5  ReadFromStatusRegisters        
000010c1  GPIOPadConfigSet               
000011f3  __mpu_init                     
000011f5  SysCtlClockGet                 
00001305  __aeabi_dmul                   
00001401  SysCtlClockSet                 
000014f5  __aeabi_memcpy                 
000014f5  __aeabi_memcpy4                
000014f5  __aeabi_memcpy8                
000014f5  memcpy                         
00001591  __aeabi_memclr                 
00001591  __aeabi_memclr4                
00001591  __aeabi_memclr8                
00001593  __aeabi_memset                 
00001593  __aeabi_memset4                
00001593  __aeabi_memset8                
00001599  memset                         
0000160b  _system_post_cinit             
0000160d  __TI_auto_init                 
000016e9  _c_int00                       
0000173d  C$$EXIT                        
00001741  abort                          
00001749  exit                           
00001791  copy_in                        
000017dd  GPIOPinConfigure               
00001825  __aeabi_d2iz                   
0000186d  UARTConfigSetExpClk            
000018b3  SSIConfigSetExpClk             
000018f1  SysCtlPeripheralEnable         
00001925  __aeabi_i2d                    
00001953  GPIODirModeSet                 
0000197d  strncmp                        
000019a5  UARTDisable                    
000019c5  GPIOPinTypeGPIOOutput          
000019dd  _args_main                     
000019f5  UARTEnable                     
00001a09  _register_unlock               
00001a0f  _register_lock                 
00001a17  _nop                           
00001a1d  GPIOPinTypeSSI                 
00001a2f  GPIOPinTypeUART                
00001a41  SSIDataGetNonBlocking          
00001a53  __TI_decompress_none           
00001a61  SSIDataGet                     
00001a6d  ResetISR                       
00001a79  SSIDataPut                     
00001a83  SSIDisable                     
00001a8d  SSIEnable                      
00001a97  UARTCharGet                    
00001aa1  UARTCharPut                    
00001aab  SSIBusy                        
00001ab3  GPIOPinWrite                   
00001ab9  SysCtlDelay                    
00001abf  __TI_decompress_rle24          
00001ac5  _system_pre_init               
00001bf4  __TI_Handler_Table_Base        
00001bfc  __TI_CINIT_Base                
00001bfc  __TI_Handler_Table_Limit       
00001c0c  __TI_CINIT_Limit               
20000000  __stack                        
20000200  __STACK_END                    
20000200  __STACK_TOP                    
20000200  __TI_cleanup_ptr               
20000204  __TI_dtors_ptr                 
20000208  __TI_enable_exit_profile_output
2000020c  _lock                          
20000210  _unlock                        
20000214  main_func_sp                   
20000218  newline                        
2000021c  cs_config                      
ffffffff  __TI_pprof_out_hndl            
ffffffff  __TI_prof_data_size            
ffffffff  __TI_prof_data_start           
ffffffff  __binit__                      
ffffffff  __c_args__                     
ffffffff  binit                          
UNDEFED   SHT$$INIT_ARRAY$$Base          
UNDEFED   SHT$$INIT_ARRAY$$Limit         

[107 symbols]
