******************************************************************************
                  TI ARM Linker PC v15.12.5                    
******************************************************************************
>> Linked Wed Jul 19 10:16:20 2017

OUTPUT FILE NAME:   <8V97003 Synth API.out>
ENTRY POINT SYMBOL: "_c_int00"  address: 0000178d


MEMORY CONFIGURATION

         name            origin    length      used     unused   attr    fill
----------------------  --------  ---------  --------  --------  ----  --------
  FLASH                 00000000   00040000  00001cac  0003e354  R  X
  SRAM                  20000000   00008000  0000021f  00007de1  RW X


SEGMENT ALLOCATION MAP

run origin  load origin   length   init length attrs members
----------  ----------- ---------- ----------- ----- -------
00000000    00000000    00001cac   00001cac    r-x
  00000000    00000000    0000026c   0000026c    r-- .intvecs
  0000026c    0000026c    00001900   00001900    r-x .text
  00001b6c    00001b6c    000000fc   000000fc    r-- .const
  00001c68    00001c68    00000044   00000044    r-- .cinit
20000000    20000000    00000220   00000000    rw-
  20000000    20000000    00000200   00000000    rw- .stack
  20000200    20000200    0000001b   00000000    rw- .data
  2000021c    2000021c    00000004   00000000    rw- .bss


SECTION ALLOCATION MAP

 output                                  attributes/
section   page    origin      length       input sections
--------  ----  ----------  ----------   ----------------
.intvecs   0    00000000    0000026c     
                  00000000    0000026c     tm4c123gh6pm_startup_ccs.obj (.intvecs)

.text      0    0000026c    00001900     
                  0000026c    00000ef8     main.obj (.text)
                  00001164    00000132     driverlib.lib : gpio.obj (.text:GPIOPadConfigSet)
                  00001296    00000002     rtsv7M4_T_le_v4SPD16_eabi.lib : mpu_init.obj (.text)
                  00001298    00000110     driverlib.lib : sysctl.obj (.text:SysCtlClockGet)
                  000013a8    000000fc     rtsv7M4_T_le_v4SPD16_eabi.lib : fd_mul_t2.obj (.text)
                  000014a4    000000f4     driverlib.lib : sysctl.obj (.text:SysCtlClockSet)
                  00001598    0000009c     rtsv7M4_T_le_v4SPD16_eabi.lib : memcpy_t2.obj (.text)
                  00001634    0000007a                                   : memset_t2.obj (.text)
                  000016ae    00000002                                   : startup.obj (.text)
                  000016b0    00000070                                   : autoinit.obj (.text)
                  00001720    0000006a                                   : copy_decompress_rle.obj (.text)
                  0000178a    00000002     --HOLE-- [fill = 0]
                  0000178c    00000054                                   : boot.obj (.text)
                  000017e0    00000054                                   : exit.obj (.text)
                  00001834    0000004c                                   : cpy_tbl.obj (.text)
                  00001880    00000048     driverlib.lib : gpio.obj (.text:GPIOPinConfigure)
                  000018c8    00000048     rtsv7M4_T_le_v4SPD16_eabi.lib : fd_toi_t2.obj (.text)
                  00001910    00000046     driverlib.lib : uart.obj (.text:UARTConfigSetExpClk)
                  00001956    0000003c                   : ssi.obj (.text:SSIConfigSetExpClk)
                  00001992    00000002     --HOLE-- [fill = 0]
                  00001994    00000034                   : sysctl.obj (.text:SysCtlPeripheralEnable)
                  000019c8    0000002e     rtsv7M4_T_le_v4SPD16_eabi.lib : i_tofd_t2.obj (.text)
                  000019f6    0000002a     driverlib.lib : gpio.obj (.text:GPIODirModeSet)
                  00001a20    00000026     rtsv7M4_T_le_v4SPD16_eabi.lib : strncmp.obj (.text)
                  00001a46    00000002     --HOLE-- [fill = 0]
                  00001a48    00000020     driverlib.lib : uart.obj (.text:UARTDisable)
                  00001a68    00000018                   : gpio.obj (.text:GPIOPinTypeGPIOOutput)
                  00001a80    00000018     rtsv7M4_T_le_v4SPD16_eabi.lib : args_main.obj (.text)
                  00001a98    00000014     driverlib.lib : uart.obj (.text:UARTEnable)
                  00001aac    00000014     rtsv7M4_T_le_v4SPD16_eabi.lib : _lock.obj (.text)
                  00001ac0    00000012     driverlib.lib : gpio.obj (.text:GPIOPinTypeSSI)
                  00001ad2    00000012                   : gpio.obj (.text:GPIOPinTypeUART)
                  00001ae4    00000012                   : ssi.obj (.text:SSIDataGetNonBlocking)
                  00001af6    0000000e     rtsv7M4_T_le_v4SPD16_eabi.lib : copy_decompress_none.obj (.text:decompress:none)
                  00001b04    0000000c     driverlib.lib : ssi.obj (.text:SSIDataGet)
                  00001b10    0000000c     tm4c123gh6pm_startup_ccs.obj (.text)
                  00001b1c    0000000a     driverlib.lib : ssi.obj (.text:SSIDataPut)
                  00001b26    0000000a                   : ssi.obj (.text:SSIDisable)
                  00001b30    0000000a                   : ssi.obj (.text:SSIEnable)
                  00001b3a    0000000a                   : uart.obj (.text:UARTCharGet)
                  00001b44    0000000a                   : uart.obj (.text:UARTCharPut)
                  00001b4e    00000008                   : ssi.obj (.text:SSIBusy)
                  00001b56    00000006                   : gpio.obj (.text:GPIOPinWrite)
                  00001b5c    00000006                   : sysctl.obj (.text:SysCtlDelay)
                  00001b62    00000006     rtsv7M4_T_le_v4SPD16_eabi.lib : copy_decompress_rle.obj (.text:decompress:rle24)
                  00001b68    00000004                                   : pre_init.obj (.text)

.const     0    00001b6c    000000fc     
                  00001b6c    00000090     driverlib.lib : gpio.obj (.const:g_pui32GPIOBaseAddrs)
                  00001bfc    0000006c                   : sysctl.obj (.const:g_pui32Xtals)

.cinit     0    00001c68    00000044     
                  00001c68    00000019     (.cinit..data.load) [load image, compression = rle]
                  00001c81    00000007     --HOLE-- [fill = 0]
                  00001c88    00000009     (.cinit..bss.load) [load image, compression = rle]
                  00001c91    00000003     --HOLE-- [fill = 0]
                  00001c94    00000008     (__TI_handler_table)
                  00001c9c    00000010     (__TI_cinit_table)

.init_array 
*          0    00000000    00000000     UNINITIALIZED

.stack     0    20000000    00000200     UNINITIALIZED
                  20000000    00000200     --HOLE--

.data      0    20000200    0000001b     UNINITIALIZED
                  20000200    0000000c     rtsv7M4_T_le_v4SPD16_eabi.lib : exit.obj (.data:$O1$$)
                  2000020c    00000008                                   : _lock.obj (.data:$O1$$)
                  20000214    00000004                                   : stkdepth_vars.obj (.data)
                  20000218    00000003     main.obj (.data:newline)

.bss       0    2000021c    00000004     UNINITIALIZED
                  2000021c    00000004     (.common:cs_config)

MODULE SUMMARY

       Module                         code   ro data   rw data
       ------                         ----   -------   -------
    .\
       main.obj                       3832   0         7      
       tm4c123gh6pm_startup_ccs.obj   12     620       0      
    +--+------------------------------+------+---------+---------+
       Total:                         3844   620       7      
                                                              
    C:/ti/TivaWare_C_Series-2.1.4.178/driverlib/ccs/Debug/driverlib.lib
       sysctl.obj                     574    108       0      
       gpio.obj                       486    144       0      
       uart.obj                       142    0         0      
       ssi.obj                        128    0         0      
    +--+------------------------------+------+---------+---------+
       Total:                         1330   252       0      
                                                              
    C:\ti\ccsv6\tools\compiler\ti-cgt-arm_15.12.5.LTS\lib\rtsv7M4_T_le_v4SPD16_eabi.lib
       fd_mul_t2.obj                  252    0         0      
       memcpy_t2.obj                  156    0         0      
       memset_t2.obj                  122    0         0      
       autoinit.obj                   112    0         0      
       copy_decompress_rle.obj        112    0         0      
       exit.obj                       84     0         12     
       boot.obj                       84     0         0      
       cpy_tbl.obj                    76     0         0      
       fd_toi_t2.obj                  72     0         0      
       i_tofd_t2.obj                  46     0         0      
       strncmp.obj                    38     0         0      
       _lock.obj                      20     0         8      
       args_main.obj                  24     0         0      
       copy_decompress_none.obj       14     0         0      
       pre_init.obj                   4      0         0      
       stkdepth_vars.obj              0      0         4      
       mpu_init.obj                   2      0         0      
       startup.obj                    2      0         0      
    +--+------------------------------+------+---------+---------+
       Total:                         1220   0         24     
                                                              
       Stack:                         0      0         512    
       Linker Generated:              0      58        0      
    +--+------------------------------+------+---------+---------+
       Grand Total:                   6394   930       543    


LINKER GENERATED COPY TABLES

__TI_cinit_table @ 00001c9c records: 2, size/record: 8, table size: 16
	.data: load addr=00001c68, load size=00000019 bytes, run addr=20000200, run size=0000001b bytes, compression=rle
	.bss: load addr=00001c88, load size=00000009 bytes, run addr=2000021c, run size=00000004 bytes, compression=rle


LINKER GENERATED HANDLER TABLE

__TI_handler_table @ 00001c94 records: 2, size/record: 4, table size: 8
	index: 0, handler: __TI_decompress_rle24
	index: 1, handler: __TI_decompress_none


GLOBAL SYMBOLS: SORTED ALPHABETICALLY BY Name 

address   name                           
-------   ----                           
000017e1  C$$EXIT                        
00000c31  CalibrationControl             
000005e9  ConvertStringToNumber          
000003b3  Create24BitWord                
000019f7  GPIODirModeSet                 
00001165  GPIOPadConfigSet               
00001881  GPIOPinConfigure               
00001a69  GPIOPinTypeGPIOOutput          
00001ac1  GPIOPinTypeSSI                 
00001ad3  GPIOPinTypeUART                
00001b57  GPIOPinWrite                   
00000467  GetRegisterValue               
000006d3  InitConsole                    
00000865  InitPrefaceRegister            
00000cc5  ReadFromStatusRegisters        
00001b11  ResetISR                       
UNDEFED   SHT$$INIT_ARRAY$$Base          
UNDEFED   SHT$$INIT_ARRAY$$Limit         
00001b4f  SSIBusy                        
00001957  SSIConfigSetExpClk             
00001b05  SSIDataGet                     
00001ae5  SSIDataGetNonBlocking          
00001b1d  SSIDataPut                     
00001b27  SSIDisable                     
00001b31  SSIEnable                      
0000096d  SetBandSelectClockDivider      
00000cad  SetCalibrationVoltage          
00000877  SetFeedbackControlValues       
00000bcd  SetPhaseAdjustment             
000009ed  SetupChargePump                
00000b69  SetupLockDetect                
00000a5d  SetupOutputControl             
00000317  SplitNumber_16Bit              
00000359  SplitNumber_32Bit              
00001299  SysCtlClockGet                 
000014a5  SysCtlClockSet                 
00001b5d  SysCtlDelay                    
00001995  SysCtlPeripheralEnable         
00001b3b  UARTCharGet                    
00001b45  UARTCharPut                    
00001911  UARTConfigSetExpClk            
00001a49  UARTDisable                    
00001a99  UARTEnable                     
20000200  __STACK_END                    
00000200  __STACK_SIZE                   
20000200  __STACK_TOP                    
00001c9c  __TI_CINIT_Base                
00001cac  __TI_CINIT_Limit               
00001c94  __TI_Handler_Table_Base        
00001c9c  __TI_Handler_Table_Limit       
000016b1  __TI_auto_init                 
20000200  __TI_cleanup_ptr               
00001af7  __TI_decompress_none           
00001b63  __TI_decompress_rle24          
20000204  __TI_dtors_ptr                 
20000208  __TI_enable_exit_profile_output
ffffffff  __TI_pprof_out_hndl            
ffffffff  __TI_prof_data_size            
ffffffff  __TI_prof_data_start           
00000000  __TI_static_base__             
000018c9  __aeabi_d2iz                   
000013a9  __aeabi_dmul                   
000019c9  __aeabi_i2d                    
00001635  __aeabi_memclr                 
00001635  __aeabi_memclr4                
00001635  __aeabi_memclr8                
00001599  __aeabi_memcpy                 
00001599  __aeabi_memcpy4                
00001599  __aeabi_memcpy8                
00001637  __aeabi_memset                 
00001637  __aeabi_memset4                
00001637  __aeabi_memset8                
ffffffff  __binit__                      
ffffffff  __c_args__                     
00001297  __mpu_init                     
20000000  __stack                        
00001a81  _args_main                     
0000178d  _c_int00                       
2000020c  _lock                          
00001abb  _nop                           
00001ab3  _register_lock                 
00001aad  _register_unlock               
000016af  _system_post_cinit             
00001b69  _system_pre_init               
20000210  _unlock                        
000017e5  abort                          
ffffffff  binit                          
00000551  clearArray                     
00000ec9  controlDSM                     
00001835  copy_in                        
2000021c  cs_config                      
000017ed  exit                           
00000000  g_pfnVectors                   
0000058d  getString                      
0000026d  main                           
20000214  main_func_sp                   
00001599  memcpy                         
0000163d  memset                         
20000218  newline                        
00000719  printInt                       
000007b1  printSingleNumber              
000005c1  printString                    
00000491  readWord_24Bit                 
000003c9  sendWord_24Bit                 
00000eb1  setVcoResolution               
00000279  setupChipSelect                
0000026f  setupClock                     
000002b9  setupSPI_8Bit                  
00001a21  strncmp                        


GLOBAL SYMBOLS: SORTED BY Symbol Address 

address   name                           
-------   ----                           
00000000  __TI_static_base__             
00000000  g_pfnVectors                   
00000200  __STACK_SIZE                   
0000026d  main                           
0000026f  setupClock                     
00000279  setupChipSelect                
000002b9  setupSPI_8Bit                  
00000317  SplitNumber_16Bit              
00000359  SplitNumber_32Bit              
000003b3  Create24BitWord                
000003c9  sendWord_24Bit                 
00000467  GetRegisterValue               
00000491  readWord_24Bit                 
00000551  clearArray                     
0000058d  getString                      
000005c1  printString                    
000005e9  ConvertStringToNumber          
000006d3  InitConsole                    
00000719  printInt                       
000007b1  printSingleNumber              
00000865  InitPrefaceRegister            
00000877  SetFeedbackControlValues       
0000096d  SetBandSelectClockDivider      
000009ed  SetupChargePump                
00000a5d  SetupOutputControl             
00000b69  SetupLockDetect                
00000bcd  SetPhaseAdjustment             
00000c31  CalibrationControl             
00000cad  SetCalibrationVoltage          
00000cc5  ReadFromStatusRegisters        
00000eb1  setVcoResolution               
00000ec9  controlDSM                     
00001165  GPIOPadConfigSet               
00001297  __mpu_init                     
00001299  SysCtlClockGet                 
000013a9  __aeabi_dmul                   
000014a5  SysCtlClockSet                 
00001599  __aeabi_memcpy                 
00001599  __aeabi_memcpy4                
00001599  __aeabi_memcpy8                
00001599  memcpy                         
00001635  __aeabi_memclr                 
00001635  __aeabi_memclr4                
00001635  __aeabi_memclr8                
00001637  __aeabi_memset                 
00001637  __aeabi_memset4                
00001637  __aeabi_memset8                
0000163d  memset                         
000016af  _system_post_cinit             
000016b1  __TI_auto_init                 
0000178d  _c_int00                       
000017e1  C$$EXIT                        
000017e5  abort                          
000017ed  exit                           
00001835  copy_in                        
00001881  GPIOPinConfigure               
000018c9  __aeabi_d2iz                   
00001911  UARTConfigSetExpClk            
00001957  SSIConfigSetExpClk             
00001995  SysCtlPeripheralEnable         
000019c9  __aeabi_i2d                    
000019f7  GPIODirModeSet                 
00001a21  strncmp                        
00001a49  UARTDisable                    
00001a69  GPIOPinTypeGPIOOutput          
00001a81  _args_main                     
00001a99  UARTEnable                     
00001aad  _register_unlock               
00001ab3  _register_lock                 
00001abb  _nop                           
00001ac1  GPIOPinTypeSSI                 
00001ad3  GPIOPinTypeUART                
00001ae5  SSIDataGetNonBlocking          
00001af7  __TI_decompress_none           
00001b05  SSIDataGet                     
00001b11  ResetISR                       
00001b1d  SSIDataPut                     
00001b27  SSIDisable                     
00001b31  SSIEnable                      
00001b3b  UARTCharGet                    
00001b45  UARTCharPut                    
00001b4f  SSIBusy                        
00001b57  GPIOPinWrite                   
00001b5d  SysCtlDelay                    
00001b63  __TI_decompress_rle24          
00001b69  _system_pre_init               
00001c94  __TI_Handler_Table_Base        
00001c9c  __TI_CINIT_Base                
00001c9c  __TI_Handler_Table_Limit       
00001cac  __TI_CINIT_Limit               
20000000  __stack                        
20000200  __STACK_END                    
20000200  __STACK_TOP                    
20000200  __TI_cleanup_ptr               
20000204  __TI_dtors_ptr                 
20000208  __TI_enable_exit_profile_output
2000020c  _lock                          
20000210  _unlock                        
20000214  main_func_sp                   
20000218  newline                        
2000021c  cs_config                      
ffffffff  __TI_pprof_out_hndl            
ffffffff  __TI_prof_data_size            
ffffffff  __TI_prof_data_start           
ffffffff  __binit__                      
ffffffff  __c_args__                     
ffffffff  binit                          
UNDEFED   SHT$$INIT_ARRAY$$Base          
UNDEFED   SHT$$INIT_ARRAY$$Limit         

[109 symbols]
