******************************************************************************
                  TI ARM Linker PC v15.12.5                    
******************************************************************************
>> Linked Fri Jul 21 09:50:23 2017

OUTPUT FILE NAME:   <8V97003 Synth API.out>
ENTRY POINT SYMBOL: "_c_int00"  address: 000018e9


MEMORY CONFIGURATION

         name            origin    length      used     unused   attr    fill
----------------------  --------  ---------  --------  --------  ----  --------
  FLASH                 00000000   00040000  00001de4  0003e21c  R  X
  SRAM                  20000000   00008000  0000021b  00007de5  RW X


SEGMENT ALLOCATION MAP

run origin  load origin   length   init length attrs members
----------  ----------- ---------- ----------- ----- -------
00000000    00000000    00001de8   00001de8    r-x
  00000000    00000000    0000026c   0000026c    r-- .intvecs
  0000026c    0000026c    00001a5c   00001a5c    r-x .text
  00001cc8    00001cc8    000000fc   000000fc    r-- .const
  00001dc8    00001dc8    00000020   00000020    r-- .cinit
20000000    20000000    0000021b   00000000    rw-
  20000000    20000000    00000200   00000000    rw- .stack
  20000200    20000200    0000001b   00000000    rw- .data


SECTION ALLOCATION MAP

 output                                  attributes/
section   page    origin      length       input sections
--------  ----  ----------  ----------   ----------------
.intvecs   0    00000000    0000026c     
                  00000000    0000026c     tm4c123gh6pm_startup_ccs.obj (.intvecs)

.text      0    0000026c    00001a5c     
                  0000026c    00001054     main.obj (.text)
                  000012c0    00000132     driverlib.lib : gpio.obj (.text:GPIOPadConfigSet)
                  000013f2    00000002     rtsv7M4_T_le_v4SPD16_eabi.lib : mpu_init.obj (.text)
                  000013f4    00000110     driverlib.lib : sysctl.obj (.text:SysCtlClockGet)
                  00001504    000000fc     rtsv7M4_T_le_v4SPD16_eabi.lib : fd_mul_t2.obj (.text)
                  00001600    000000f4     driverlib.lib : sysctl.obj (.text:SysCtlClockSet)
                  000016f4    0000009c     rtsv7M4_T_le_v4SPD16_eabi.lib : memcpy_t2.obj (.text)
                  00001790    0000007a                                   : memset_t2.obj (.text)
                  0000180a    00000002                                   : startup.obj (.text)
                  0000180c    00000070                                   : autoinit.obj (.text)
                  0000187c    0000006a                                   : copy_decompress_rle.obj (.text)
                  000018e6    00000002     --HOLE-- [fill = 0]
                  000018e8    00000054                                   : boot.obj (.text)
                  0000193c    00000054                                   : exit.obj (.text)
                  00001990    0000004c                                   : cpy_tbl.obj (.text)
                  000019dc    00000048     driverlib.lib : gpio.obj (.text:GPIOPinConfigure)
                  00001a24    00000048     rtsv7M4_T_le_v4SPD16_eabi.lib : fd_toi_t2.obj (.text)
                  00001a6c    00000046     driverlib.lib : uart.obj (.text:UARTConfigSetExpClk)
                  00001ab2    0000003c                   : ssi.obj (.text:SSIConfigSetExpClk)
                  00001aee    00000002     --HOLE-- [fill = 0]
                  00001af0    00000034                   : sysctl.obj (.text:SysCtlPeripheralEnable)
                  00001b24    0000002e     rtsv7M4_T_le_v4SPD16_eabi.lib : i_tofd_t2.obj (.text)
                  00001b52    0000002a     driverlib.lib : gpio.obj (.text:GPIODirModeSet)
                  00001b7c    00000026     rtsv7M4_T_le_v4SPD16_eabi.lib : strncmp.obj (.text)
                  00001ba2    00000002     --HOLE-- [fill = 0]
                  00001ba4    00000020     driverlib.lib : uart.obj (.text:UARTDisable)
                  00001bc4    00000018                   : gpio.obj (.text:GPIOPinTypeGPIOOutput)
                  00001bdc    00000018     rtsv7M4_T_le_v4SPD16_eabi.lib : args_main.obj (.text)
                  00001bf4    00000014     driverlib.lib : uart.obj (.text:UARTEnable)
                  00001c08    00000014     rtsv7M4_T_le_v4SPD16_eabi.lib : _lock.obj (.text)
                  00001c1c    00000012     driverlib.lib : gpio.obj (.text:GPIOPinTypeSSI)
                  00001c2e    00000012                   : gpio.obj (.text:GPIOPinTypeUART)
                  00001c40    00000012                   : ssi.obj (.text:SSIDataGetNonBlocking)
                  00001c52    0000000e     rtsv7M4_T_le_v4SPD16_eabi.lib : copy_decompress_none.obj (.text:decompress:none)
                  00001c60    0000000c     driverlib.lib : ssi.obj (.text:SSIDataGet)
                  00001c6c    0000000c     tm4c123gh6pm_startup_ccs.obj (.text)
                  00001c78    0000000a     driverlib.lib : ssi.obj (.text:SSIDataPut)
                  00001c82    0000000a                   : ssi.obj (.text:SSIDisable)
                  00001c8c    0000000a                   : ssi.obj (.text:SSIEnable)
                  00001c96    0000000a                   : uart.obj (.text:UARTCharGet)
                  00001ca0    0000000a                   : uart.obj (.text:UARTCharPut)
                  00001caa    00000008                   : ssi.obj (.text:SSIBusy)
                  00001cb2    00000006                   : gpio.obj (.text:GPIOPinWrite)
                  00001cb8    00000006                   : sysctl.obj (.text:SysCtlDelay)
                  00001cbe    00000006     rtsv7M4_T_le_v4SPD16_eabi.lib : copy_decompress_rle.obj (.text:decompress:rle24)
                  00001cc4    00000004                                   : pre_init.obj (.text)

.const     0    00001cc8    000000fc     
                  00001cc8    00000090     driverlib.lib : gpio.obj (.const:g_pui32GPIOBaseAddrs)
                  00001d58    0000006c                   : sysctl.obj (.const:g_pui32Xtals)

.cinit     0    00001dc8    00000020     
                  00001dc8    00000010     (.cinit..data.load) [load image, compression = rle]
                  00001dd8    00000008     (__TI_handler_table)
                  00001de0    00000008     (__TI_cinit_table)

.init_array 
*          0    00000000    00000000     UNINITIALIZED

.stack     0    20000000    00000200     UNINITIALIZED
                  20000000    00000200     --HOLE--

.data      0    20000200    0000001b     UNINITIALIZED
                  20000200    0000000c     rtsv7M4_T_le_v4SPD16_eabi.lib : exit.obj (.data:$O1$$)
                  2000020c    00000008                                   : _lock.obj (.data:$O1$$)
                  20000214    00000004                                   : stkdepth_vars.obj (.data)
                  20000218    00000003     main.obj (.data:newline)

MODULE SUMMARY

       Module                         code   ro data   rw data
       ------                         ----   -------   -------
    .\
       main.obj                       4180   0         3      
       tm4c123gh6pm_startup_ccs.obj   12     620       0      
    +--+------------------------------+------+---------+---------+
       Total:                         4192   620       3      
                                                              
    C:/ti/TivaWare_C_Series-2.1.4.178/driverlib/ccs/Debug/driverlib.lib
       sysctl.obj                     574    108       0      
       gpio.obj                       486    144       0      
       uart.obj                       142    0         0      
       ssi.obj                        128    0         0      
    +--+------------------------------+------+---------+---------+
       Total:                         1330   252       0      
                                                              
    C:\ti\ccsv6\tools\compiler\ti-cgt-arm_15.12.5.LTS\lib\rtsv7M4_T_le_v4SPD16_eabi.lib
       fd_mul_t2.obj                  252    0         0      
       memcpy_t2.obj                  156    0         0      
       memset_t2.obj                  122    0         0      
       autoinit.obj                   112    0         0      
       copy_decompress_rle.obj        112    0         0      
       exit.obj                       84     0         12     
       boot.obj                       84     0         0      
       cpy_tbl.obj                    76     0         0      
       fd_toi_t2.obj                  72     0         0      
       i_tofd_t2.obj                  46     0         0      
       strncmp.obj                    38     0         0      
       _lock.obj                      20     0         8      
       args_main.obj                  24     0         0      
       copy_decompress_none.obj       14     0         0      
       pre_init.obj                   4      0         0      
       stkdepth_vars.obj              0      0         4      
       mpu_init.obj                   2      0         0      
       startup.obj                    2      0         0      
    +--+------------------------------+------+---------+---------+
       Total:                         1220   0         24     
                                                              
       Stack:                         0      0         512    
       Linker Generated:              0      32        0      
    +--+------------------------------+------+---------+---------+
       Grand Total:                   6742   904       539    


LINKER GENERATED COPY TABLES

__TI_cinit_table @ 00001de0 records: 1, size/record: 8, table size: 8
	.data: load addr=00001dc8, load size=00000010 bytes, run addr=20000200, run size=0000001b bytes, compression=rle


LINKER GENERATED HANDLER TABLE

__TI_handler_table @ 00001dd8 records: 2, size/record: 4, table size: 8
	index: 0, handler: __TI_decompress_rle24
	index: 1, handler: __TI_decompress_none


GLOBAL SYMBOLS: SORTED ALPHABETICALLY BY Name 

address   name                           
-------   ----                           
0000193d  C$$EXIT                        
00000d8d  CalibrationControl             
000003b3  Create24BitWord                
00001b53  GPIODirModeSet                 
000012c1  GPIOPadConfigSet               
000019dd  GPIOPinConfigure               
00001bc5  GPIOPinTypeGPIOOutput          
00001c1d  GPIOPinTypeSSI                 
00001c2f  GPIOPinTypeUART                
00001cb3  GPIOPinWrite                   
00000467  GetRegisterValue               
000008cf  InitPrefaceRegister            
00000e21  ReadFromStatusRegisters        
00001c6d  ResetISR                       
UNDEFED   SHT$$INIT_ARRAY$$Base          
UNDEFED   SHT$$INIT_ARRAY$$Limit         
00001cab  SSIBusy                        
00001ab3  SSIConfigSetExpClk             
00001c61  SSIDataGet                     
00001c41  SSIDataGetNonBlocking          
00001c79  SSIDataPut                     
00001c83  SSIDisable                     
00001c8d  SSIEnable                      
000009dd  SetBandSelectClockDivider      
00000e09  SetCalibrationVoltage          
000008e1  SetFeedbackControlValues       
00000d29  SetPhaseAdjustment             
00000b53  SetupChargePump                
00000a65  SetupInputControlRegisters     
00000cc5  SetupLockDetect                
00000bb9  SetupOutputControl             
00000317  SplitNumber_16Bit              
00000359  SplitNumber_32Bit              
000013f5  SysCtlClockGet                 
00001601  SysCtlClockSet                 
00001cb9  SysCtlDelay                    
00001af1  SysCtlPeripheralEnable         
00001c97  UARTCharGet                    
00001ca1  UARTCharPut                    
00001a6d  UARTConfigSetExpClk            
00001ba5  UARTDisable                    
00001bf5  UARTEnable                     
20000200  __STACK_END                    
00000200  __STACK_SIZE                   
20000200  __STACK_TOP                    
00001de0  __TI_CINIT_Base                
00001de8  __TI_CINIT_Limit               
00001dd8  __TI_Handler_Table_Base        
00001de0  __TI_Handler_Table_Limit       
0000180d  __TI_auto_init                 
20000200  __TI_cleanup_ptr               
00001c53  __TI_decompress_none           
00001cbf  __TI_decompress_rle24          
20000204  __TI_dtors_ptr                 
20000208  __TI_enable_exit_profile_output
ffffffff  __TI_pprof_out_hndl            
ffffffff  __TI_prof_data_size            
ffffffff  __TI_prof_data_start           
00000000  __TI_static_base__             
00001a25  __aeabi_d2iz                   
00001505  __aeabi_dmul                   
00001b25  __aeabi_i2d                    
00001791  __aeabi_memclr                 
00001791  __aeabi_memclr4                
00001791  __aeabi_memclr8                
000016f5  __aeabi_memcpy                 
000016f5  __aeabi_memcpy4                
000016f5  __aeabi_memcpy8                
00001793  __aeabi_memset                 
00001793  __aeabi_memset4                
00001793  __aeabi_memset8                
ffffffff  __binit__                      
ffffffff  __c_args__                     
000013f3  __mpu_init                     
20000000  __stack                        
00001bdd  _args_main                     
000018e9  _c_int00                       
2000020c  _lock                          
00001c17  _nop                           
00001c0f  _register_lock                 
00001c09  _register_unlock               
0000180b  _system_post_cinit             
00001cc5  _system_pre_init               
20000210  _unlock                        
00001941  abort                          
ffffffff  binit                          
00001025  controlDSM                     
00001991  copy_in                        
UNDEFED   cs_config                      
00001949  exit                           
00000000  g_pfnVectors                   
0000026d  main                           
20000214  main_func_sp                   
000016f5  memcpy                         
00001799  memset                         
20000218  newline                        
00000491  readWord_24Bit                 
000003c9  sendWord_24Bit                 
0000100d  setVcoResolution               
00000279  setupChipSelect                
0000026f  setupClock                     
000002b9  setupSPI_8Bit                  
00001b7d  strncmp                        


GLOBAL SYMBOLS: SORTED BY Symbol Address 

address   name                           
-------   ----                           
00000000  __TI_static_base__             
00000000  g_pfnVectors                   
00000200  __STACK_SIZE                   
0000026d  main                           
0000026f  setupClock                     
00000279  setupChipSelect                
000002b9  setupSPI_8Bit                  
00000317  SplitNumber_16Bit              
00000359  SplitNumber_32Bit              
000003b3  Create24BitWord                
000003c9  sendWord_24Bit                 
00000467  GetRegisterValue               
00000491  readWord_24Bit                 
000008cf  InitPrefaceRegister            
000008e1  SetFeedbackControlValues       
000009dd  SetBandSelectClockDivider      
00000a65  SetupInputControlRegisters     
00000b53  SetupChargePump                
00000bb9  SetupOutputControl             
00000cc5  SetupLockDetect                
00000d29  SetPhaseAdjustment             
00000d8d  CalibrationControl             
00000e09  SetCalibrationVoltage          
00000e21  ReadFromStatusRegisters        
0000100d  setVcoResolution               
00001025  controlDSM                     
000012c1  GPIOPadConfigSet               
000013f3  __mpu_init                     
000013f5  SysCtlClockGet                 
00001505  __aeabi_dmul                   
00001601  SysCtlClockSet                 
000016f5  __aeabi_memcpy                 
000016f5  __aeabi_memcpy4                
000016f5  __aeabi_memcpy8                
000016f5  memcpy                         
00001791  __aeabi_memclr                 
00001791  __aeabi_memclr4                
00001791  __aeabi_memclr8                
00001793  __aeabi_memset                 
00001793  __aeabi_memset4                
00001793  __aeabi_memset8                
00001799  memset                         
0000180b  _system_post_cinit             
0000180d  __TI_auto_init                 
000018e9  _c_int00                       
0000193d  C$$EXIT                        
00001941  abort                          
00001949  exit                           
00001991  copy_in                        
000019dd  GPIOPinConfigure               
00001a25  __aeabi_d2iz                   
00001a6d  UARTConfigSetExpClk            
00001ab3  SSIConfigSetExpClk             
00001af1  SysCtlPeripheralEnable         
00001b25  __aeabi_i2d                    
00001b53  GPIODirModeSet                 
00001b7d  strncmp                        
00001ba5  UARTDisable                    
00001bc5  GPIOPinTypeGPIOOutput          
00001bdd  _args_main                     
00001bf5  UARTEnable                     
00001c09  _register_unlock               
00001c0f  _register_lock                 
00001c17  _nop                           
00001c1d  GPIOPinTypeSSI                 
00001c2f  GPIOPinTypeUART                
00001c41  SSIDataGetNonBlocking          
00001c53  __TI_decompress_none           
00001c61  SSIDataGet                     
00001c6d  ResetISR                       
00001c79  SSIDataPut                     
00001c83  SSIDisable                     
00001c8d  SSIEnable                      
00001c97  UARTCharGet                    
00001ca1  UARTCharPut                    
00001cab  SSIBusy                        
00001cb3  GPIOPinWrite                   
00001cb9  SysCtlDelay                    
00001cbf  __TI_decompress_rle24          
00001cc5  _system_pre_init               
00001dd8  __TI_Handler_Table_Base        
00001de0  __TI_CINIT_Base                
00001de0  __TI_Handler_Table_Limit       
00001de8  __TI_CINIT_Limit               
20000000  __stack                        
20000200  __STACK_END                    
20000200  __STACK_TOP                    
20000200  __TI_cleanup_ptr               
20000204  __TI_dtors_ptr                 
20000208  __TI_enable_exit_profile_output
2000020c  _lock                          
20000210  _unlock                        
20000214  main_func_sp                   
20000218  newline                        
ffffffff  __TI_pprof_out_hndl            
ffffffff  __TI_prof_data_size            
ffffffff  __TI_prof_data_start           
ffffffff  __binit__                      
ffffffff  __c_args__                     
ffffffff  binit                          
UNDEFED   SHT$$INIT_ARRAY$$Base          
UNDEFED   SHT$$INIT_ARRAY$$Limit         
UNDEFED   cs_config                      

[103 symbols]
