******************************************************************************
                  TI ARM Linker PC v15.12.5                    
******************************************************************************
>> Linked Thu Jun 29 18:51:40 2017

OUTPUT FILE NAME:   <Slave Code For TivaC SPI.out>
ENTRY POINT SYMBOL: "_c_int00"  address: 00000835


MEMORY CONFIGURATION

         name            origin    length      used     unused   attr    fill
----------------------  --------  ---------  --------  --------  ----  --------
  FLASH                 00000000   00040000  00000bb8  0003f448  R  X
  SRAM                  20000000   00008000  00000218  00007de8  RW X


SEGMENT ALLOCATION MAP

run origin  load origin   length   init length attrs members
----------  ----------- ---------- ----------- ----- -------
00000000    00000000    00000bb8   00000bb8    r-x
  00000000    00000000    0000026c   0000026c    r-- .intvecs
  0000026c    0000026c    00000828   00000828    r-x .text
  00000a94    00000a94    000000fc   000000fc    r-- .const
  00000b90    00000b90    00000028   00000028    r-- .cinit
20000000    20000000    00000218   00000000    rw-
  20000000    20000000    00000200   00000000    rw- .stack
  20000200    20000200    00000018   00000000    rw- .data


SECTION ALLOCATION MAP

 output                                  attributes/
section   page    origin      length       input sections
--------  ----  ----------  ----------   ----------------
.intvecs   0    00000000    0000026c     
                  00000000    0000026c     tm4c123gh6pm_startup_ccs.obj (.intvecs)

.text      0    0000026c    00000828     
                  0000026c    00000132     driverlib.lib : gpio.obj (.text:GPIOPadConfigSet)
                  0000039e    00000002     rtsv7M4_T_le_v4SPD16_eabi.lib : mpu_init.obj (.text)
                  000003a0    00000110     driverlib.lib : sysctl.obj (.text:SysCtlClockGet)
                  000004b0    000000f4                   : sysctl.obj (.text:SysCtlClockSet)
                  000005a4    0000009c     main.obj (.text)
                  00000640    0000009c     rtsv7M4_T_le_v4SPD16_eabi.lib : memcpy_t2.obj (.text)
                  000006dc    0000007a                                   : memset_t2.obj (.text)
                  00000756    00000002                                   : startup.obj (.text)
                  00000758    00000070                                   : autoinit.obj (.text)
                  000007c8    0000006a                                   : copy_decompress_rle.obj (.text)
                  00000832    00000002     --HOLE-- [fill = 0]
                  00000834    00000054                                   : boot.obj (.text)
                  00000888    00000054                                   : exit.obj (.text)
                  000008dc    0000004c                                   : cpy_tbl.obj (.text)
                  00000928    00000048     driverlib.lib : gpio.obj (.text:GPIOPinConfigure)
                  00000970    0000003c                   : ssi.obj (.text:SSIConfigSetExpClk)
                  000009ac    00000034                   : sysctl.obj (.text:SysCtlPeripheralEnable)
                  000009e0    0000002a                   : gpio.obj (.text:GPIODirModeSet)
                  00000a0a    00000002     --HOLE-- [fill = 0]
                  00000a0c    00000018     rtsv7M4_T_le_v4SPD16_eabi.lib : args_main.obj (.text)
                  00000a24    00000014                                   : _lock.obj (.text)
                  00000a38    00000012     driverlib.lib : gpio.obj (.text:GPIOPinTypeSSI)
                  00000a4a    0000000e     rtsv7M4_T_le_v4SPD16_eabi.lib : copy_decompress_none.obj (.text:decompress:none)
                  00000a58    0000000c     driverlib.lib : ssi.obj (.text:SSIDataGet)
                  00000a64    0000000c     tm4c123gh6pm_startup_ccs.obj (.text)
                  00000a70    0000000a     driverlib.lib : ssi.obj (.text:SSIDisable)
                  00000a7a    0000000a                   : ssi.obj (.text:SSIEnable)
                  00000a84    00000006                   : sysctl.obj (.text:SysCtlDelay)
                  00000a8a    00000006     rtsv7M4_T_le_v4SPD16_eabi.lib : copy_decompress_rle.obj (.text:decompress:rle24)
                  00000a90    00000004                                   : pre_init.obj (.text)

.const     0    00000a94    000000fc     
                  00000a94    00000090     driverlib.lib : gpio.obj (.const:g_pui32GPIOBaseAddrs)
                  00000b24    0000006c                   : sysctl.obj (.const:g_pui32Xtals)

.cinit     0    00000b90    00000028     
                  00000b90    00000016     (.cinit..data.load) [load image, compression = rle]
                  00000ba6    00000002     --HOLE-- [fill = 0]
                  00000ba8    00000008     (__TI_handler_table)
                  00000bb0    00000008     (__TI_cinit_table)

.init_array 
*          0    00000000    00000000     UNINITIALIZED

.stack     0    20000000    00000200     UNINITIALIZED
                  20000000    00000200     --HOLE--

.data      0    20000200    00000018     UNINITIALIZED
                  20000200    0000000c     rtsv7M4_T_le_v4SPD16_eabi.lib : exit.obj (.data:$O1$$)
                  2000020c    00000008                                   : _lock.obj (.data:$O1$$)
                  20000214    00000004                                   : stkdepth_vars.obj (.data)

MODULE SUMMARY

       Module                         code   ro data   rw data
       ------                         ----   -------   -------
    .\
       tm4c123gh6pm_startup_ccs.obj   12     620       0      
       main.obj                       156    0         0      
    +--+------------------------------+------+---------+---------+
       Total:                         168    620       0      
                                                              
    C:/ti/TivaWare_C_Series-2.1.4.178/driverlib/ccs/Debug/driverlib.lib
       sysctl.obj                     574    108       0      
       gpio.obj                       438    144       0      
       ssi.obj                        92     0         0      
    +--+------------------------------+------+---------+---------+
       Total:                         1104   252       0      
                                                              
    C:\ti\ccsv6\tools\compiler\ti-cgt-arm_15.12.5.LTS\lib\rtsv7M4_T_le_v4SPD16_eabi.lib
       memcpy_t2.obj                  156    0         0      
       memset_t2.obj                  122    0         0      
       autoinit.obj                   112    0         0      
       copy_decompress_rle.obj        112    0         0      
       exit.obj                       84     0         12     
       boot.obj                       84     0         0      
       cpy_tbl.obj                    76     0         0      
       _lock.obj                      20     0         8      
       args_main.obj                  24     0         0      
       copy_decompress_none.obj       14     0         0      
       pre_init.obj                   4      0         0      
       stkdepth_vars.obj              0      0         4      
       mpu_init.obj                   2      0         0      
       startup.obj                    2      0         0      
    +--+------------------------------+------+---------+---------+
       Total:                         812    0         24     
                                                              
       Stack:                         0      0         512    
       Linker Generated:              0      38        0      
    +--+------------------------------+------+---------+---------+
       Grand Total:                   2084   910       536    


LINKER GENERATED COPY TABLES

__TI_cinit_table @ 00000bb0 records: 1, size/record: 8, table size: 8
	.data: load addr=00000b90, load size=00000016 bytes, run addr=20000200, run size=00000018 bytes, compression=rle


LINKER GENERATED HANDLER TABLE

__TI_handler_table @ 00000ba8 records: 2, size/record: 4, table size: 8
	index: 0, handler: __TI_decompress_rle24
	index: 1, handler: __TI_decompress_none


GLOBAL SYMBOLS: SORTED ALPHABETICALLY BY Name 

address   name                           
-------   ----                           
00000889  C$$EXIT                        
000009e1  GPIODirModeSet                 
0000026d  GPIOPadConfigSet               
00000929  GPIOPinConfigure               
00000a39  GPIOPinTypeSSI                 
00000a65  ResetISR                       
UNDEFED   SHT$$INIT_ARRAY$$Base          
UNDEFED   SHT$$INIT_ARRAY$$Limit         
00000971  SSIConfigSetExpClk             
00000a59  SSIDataGet                     
00000a71  SSIDisable                     
00000a7b  SSIEnable                      
000003a1  SysCtlClockGet                 
000004b1  SysCtlClockSet                 
00000a85  SysCtlDelay                    
000009ad  SysCtlPeripheralEnable         
20000200  __STACK_END                    
00000200  __STACK_SIZE                   
20000200  __STACK_TOP                    
00000bb0  __TI_CINIT_Base                
00000bb8  __TI_CINIT_Limit               
00000ba8  __TI_Handler_Table_Base        
00000bb0  __TI_Handler_Table_Limit       
00000759  __TI_auto_init                 
20000200  __TI_cleanup_ptr               
00000a4b  __TI_decompress_none           
00000a8b  __TI_decompress_rle24          
20000204  __TI_dtors_ptr                 
20000208  __TI_enable_exit_profile_output
ffffffff  __TI_pprof_out_hndl            
ffffffff  __TI_prof_data_size            
ffffffff  __TI_prof_data_start           
00000000  __TI_static_base__             
000006dd  __aeabi_memclr                 
000006dd  __aeabi_memclr4                
000006dd  __aeabi_memclr8                
00000641  __aeabi_memcpy                 
00000641  __aeabi_memcpy4                
00000641  __aeabi_memcpy8                
000006df  __aeabi_memset                 
000006df  __aeabi_memset4                
000006df  __aeabi_memset8                
ffffffff  __binit__                      
ffffffff  __c_args__                     
0000039f  __mpu_init                     
20000000  __stack                        
00000a0d  _args_main                     
00000835  _c_int00                       
2000020c  _lock                          
00000a33  _nop                           
00000a2b  _register_lock                 
00000a25  _register_unlock               
00000757  _system_post_cinit             
00000a91  _system_pre_init               
20000210  _unlock                        
0000088d  abort                          
ffffffff  binit                          
000008dd  copy_in                        
00000895  exit                           
00000000  g_pfnVectors                   
000005a5  main                           
20000214  main_func_sp                   
00000641  memcpy                         
000006e5  memset                         
000005c3  setupClock                     
000005cd  setupSPI                       


GLOBAL SYMBOLS: SORTED BY Symbol Address 

address   name                           
-------   ----                           
00000000  __TI_static_base__             
00000000  g_pfnVectors                   
00000200  __STACK_SIZE                   
0000026d  GPIOPadConfigSet               
0000039f  __mpu_init                     
000003a1  SysCtlClockGet                 
000004b1  SysCtlClockSet                 
000005a5  main                           
000005c3  setupClock                     
000005cd  setupSPI                       
00000641  __aeabi_memcpy                 
00000641  __aeabi_memcpy4                
00000641  __aeabi_memcpy8                
00000641  memcpy                         
000006dd  __aeabi_memclr                 
000006dd  __aeabi_memclr4                
000006dd  __aeabi_memclr8                
000006df  __aeabi_memset                 
000006df  __aeabi_memset4                
000006df  __aeabi_memset8                
000006e5  memset                         
00000757  _system_post_cinit             
00000759  __TI_auto_init                 
00000835  _c_int00                       
00000889  C$$EXIT                        
0000088d  abort                          
00000895  exit                           
000008dd  copy_in                        
00000929  GPIOPinConfigure               
00000971  SSIConfigSetExpClk             
000009ad  SysCtlPeripheralEnable         
000009e1  GPIODirModeSet                 
00000a0d  _args_main                     
00000a25  _register_unlock               
00000a2b  _register_lock                 
00000a33  _nop                           
00000a39  GPIOPinTypeSSI                 
00000a4b  __TI_decompress_none           
00000a59  SSIDataGet                     
00000a65  ResetISR                       
00000a71  SSIDisable                     
00000a7b  SSIEnable                      
00000a85  SysCtlDelay                    
00000a8b  __TI_decompress_rle24          
00000a91  _system_pre_init               
00000ba8  __TI_Handler_Table_Base        
00000bb0  __TI_CINIT_Base                
00000bb0  __TI_Handler_Table_Limit       
00000bb8  __TI_CINIT_Limit               
20000000  __stack                        
20000200  __STACK_END                    
20000200  __STACK_TOP                    
20000200  __TI_cleanup_ptr               
20000204  __TI_dtors_ptr                 
20000208  __TI_enable_exit_profile_output
2000020c  _lock                          
20000210  _unlock                        
20000214  main_func_sp                   
ffffffff  __TI_pprof_out_hndl            
ffffffff  __TI_prof_data_size            
ffffffff  __TI_prof_data_start           
ffffffff  __binit__                      
ffffffff  __c_args__                     
ffffffff  binit                          
UNDEFED   SHT$$INIT_ARRAY$$Base          
UNDEFED   SHT$$INIT_ARRAY$$Limit         

[66 symbols]
